; Function Attrs: nounwind uwtable
define dso_local i64 @json_object_field(ptr noundef captures(none) %0) local_unnamed_addr #0 {
  %2 = alloca ptr, align 8
  %3 = getelementptr inbounds nuw i8, ptr %0, i64 32
  %4 = load i64, ptr %3, align 8
  %5 = inttoptr i64 %4 to ptr
  %6 = tail call ptr @pg_detoast_datum_packed(ptr noundef %5) #15
  %7 = getelementptr inbounds nuw i8, ptr %0, i64 48
  %8 = load i64, ptr %7, align 8
  %9 = inttoptr i64 %8 to ptr
  %10 = tail call ptr @pg_detoast_datum_packed(ptr noundef %9) #15
  call void @llvm.lifetime.start.p0(i64 8, ptr nonnull %2) #15
  %11 = tail call ptr @text_to_cstring(ptr noundef %10) #15
  store ptr %11, ptr %2, align 8
  %12 = call fastcc ptr @get_worker(ptr noundef %6, ptr noundef nonnull %2, ptr noundef null, i32 noundef 1, i1 noundef zeroext false)
  %.not = icmp eq ptr %12, null
  br i1 %.not, label %15, label %13

13:                                               ; preds = %1
  %14 = ptrtoint ptr %12 to i64
  br label %17

15:                                               ; preds = %1
  %16 = getelementptr inbounds nuw i8, ptr %0, i64 28
  store i8 1, ptr %16, align 4
  br label %17

17:                                               ; preds = %15, %13
  %.0 = phi i64 [ %14, %13 ], [ 0, %15 ]
  call void @llvm.lifetime.end.p0(i64 8, ptr nonnull %2) #15
  ret i64 %.0
}